; Function Attrs: mustprogress nounwind uwtable
define dso_local void @_ZN5clang14JSONNodeDumper5VisitERKNS_7APValueENS_8QualTypeE(ptr noundef nonnull align 8 dereferenceable(1312) %0, ptr noundef nonnull align 8 dereferenceable(72) %1, i64 %2) local_unnamed_addr #0 align 2 {
  %4 = alloca %"class.std::__cxx11::basic_string", align 8
  %5 = alloca %"class.llvm::raw_string_ostream", align 8
  %6 = alloca %"class.llvm::json::Value", align 8
  %7 = alloca %"class.std::__cxx11::basic_string", align 8
  call void @_ZNSt7__cxx1112basic_stringIcSt11char_traitsIcESaIcEEC1Ev(ptr noundef nonnull align 8 dereferenceable(32) %4) #20
  %8 = getelementptr inbounds nuw i8, ptr %5, i64 8
  store i32 0, ptr %8, align 8
  %9 = getelementptr inbounds nuw i8, ptr %5, i64 40
  store i8 0, ptr %9, align 8
  %10 = getelementptr inbounds nuw i8, ptr %5, i64 44
  store i32 1, ptr %10, align 4
  %11 = getelementptr inbounds nuw i8, ptr %5, i64 16
  call void @llvm.memset.p0.i64(ptr noundef nonnull align 8 dereferenceable(24) %11, i8 0, i64 24, i1 false)
  store ptr getelementptr inbounds inrange(-16, 104) (i8, ptr @_ZTVN4llvm18raw_string_ostreamE, i64 16), ptr %5, align 8
  %12 = getelementptr inbounds nuw i8, ptr %5, i64 48
  store ptr %4, ptr %12, align 8
  call void @_ZN4llvm11raw_ostream16SetBufferAndModeEPcmNS0_10BufferKindE(ptr noundef nonnull align 8 dereferenceable(48) %5, ptr noundef null, i64 noundef 0, i32 noundef 0) #20
  %13 = getelementptr inbounds nuw i8, ptr %0, i64 1232
  %14 = load ptr, ptr %13, align 8
  call void @_ZNK5clang7APValue11printPrettyERN4llvm11raw_ostreamERKNS_10ASTContextENS_8QualTypeE(ptr noundef nonnull align 8 dereferenceable(72) %1, ptr noundef nonnull align 8 dereferenceable(48) %5, ptr noundef nonnull align 8 dereferenceable(23096) %14, i64 %2) #20
  %15 = getelementptr inbounds nuw i8, ptr %0, i64 1048
  call void @_ZNSt7__cxx1112basic_stringIcSt11char_traitsIcESaIcEEC1ERKS4_(ptr noundef nonnull align 8 dereferenceable(32) %7, ptr noundef nonnull align 8 dereferenceable(32) %4) #20
  call void @_ZN4llvm4json5ValueC2ENSt7__cxx1112basic_stringIcSt11char_traitsIcESaIcEEE(ptr noundef nonnull align 8 dereferenceable(40) %6, ptr noundef nonnull %7)
  call void @_ZN4llvm4json7OStream14attributeBeginENS_9StringRefE(ptr noundef nonnull align 8 dereferenceable(176) %15, ptr nonnull @.str.466, i64 5) #20
  call void @_ZN4llvm4json7OStream5valueERKNS0_5ValueE(ptr noundef nonnull align 8 dereferenceable(176) %15, ptr noundef nonnull align 8 dereferenceable(40) %6) #20
  call void @_ZN4llvm4json7OStream12attributeEndEv(ptr noundef nonnull align 8 dereferenceable(176) %15) #20
  call void @_ZN4llvm4json5Value7destroyEv(ptr noundef nonnull align 8 dereferenceable(40) %6) #20
  call void @_ZNSt7__cxx1112basic_stringIcSt11char_traitsIcESaIcEED1Ev(ptr noundef nonnull align 8 dereferenceable(32) %7) #20
  call void @_ZN4llvm11raw_ostreamD2Ev(ptr noundef nonnull align 8 dereferenceable(48) %5) #20
  call void @_ZNSt7__cxx1112basic_stringIcSt11char_traitsIcESaIcEED1Ev(ptr noundef nonnull align 8 dereferenceable(32) %4) #20
  ret void
}